target datalayout = "e-m:e-p270:32:32-p271:32:32-p272:64:64-i64:64-i128:128-f80:128-n8:16:32:64-S128"
target triple = "x86_64-pc-linux-gnu"

%"class.std::__shared_count" = type { ptr }
%"class.std::shared_ptr" = type { %"class.std::__shared_ptr" }
%"class.std::__shared_ptr" = type { ptr, %"class.std::__shared_count" }
%"class.std::shared_ptr.0" = type { %"class.std::__shared_ptr.1" }
%"class.std::__shared_ptr.1" = type { ptr, %"class.std::__shared_count" }
%"class.std::shared_ptr.3" = type { %"class.std::__shared_ptr.4" }
%"class.std::__shared_ptr.4" = type { ptr, %"class.std::__shared_count" }
%"class.std::shared_ptr.6" = type { %"class.std::__shared_ptr.7" }
%"class.std::__shared_ptr.7" = type { ptr, %"class.std::__shared_count" }
%"class.std::shared_ptr.9" = type { %"class.std::__shared_ptr.10" }
%"class.std::__shared_ptr.10" = type { ptr, %"class.std::__shared_count" }
%"class.std::shared_ptr.12" = type { %"class.std::__shared_ptr.13" }
%"class.std::__shared_ptr.13" = type { ptr, %"class.std::__shared_count" }
%"class.pxrInternal_v0_24__pxrReserved__::HdNurbsPatchSchema::Builder" = type { %"class.std::shared_ptr", %"class.std::shared_ptr", %"class.std::shared_ptr", %"class.std::shared_ptr", %"class.std::shared_ptr.3", %"class.std::shared_ptr.3", %"class.std::shared_ptr.6", %"class.std::shared_ptr.6", %"class.std::shared_ptr.9", %"class.std::shared_ptr.9", %"class.std::shared_ptr.0", %"class.std::shared_ptr.6", %"class.std::shared_ptr.12" }
%"class.std::_Sp_counted_base" = type { ptr, i32, i32 }

@__libc_single_threaded = external global i8, align 1

; Function Attrs: mustprogress nounwind uwtable
define linkonce_odr void @_ZNSt16_Sp_counted_baseILN9__gnu_cxx12_Lock_policyE2EE19_M_release_last_useEv(ptr noundef nonnull align 8 dereferenceable(16) %0) #0 comdat align 2 personality ptr @__gxx_personality_v0 {
  %2 = alloca ptr, align 8
  %3 = alloca i32, align 4
  %4 = alloca i32, align 4
  %5 = alloca i32, align 4
  %6 = alloca ptr, align 8
  %7 = alloca i32, align 4
  %8 = alloca i32, align 4
  %9 = alloca i32, align 4
  %10 = alloca ptr, align 8
  %11 = alloca i32, align 4
  %12 = alloca ptr, align 8
  store ptr %0, ptr %12, align 8
  %13 = load ptr, ptr %12, align 8
  %14 = load ptr, ptr %13, align 8
  %15 = getelementptr inbounds ptr, ptr %14, i64 2
  %16 = load ptr, ptr %15, align 8
  call void %16(ptr noundef nonnull align 8 dereferenceable(16) %13) #3
  %17 = getelementptr inbounds nuw %"class.std::_Sp_counted_base", ptr %13, i32 0, i32 2
  store ptr %17, ptr %10, align 8
  store i32 -1, ptr %11, align 4
  %18 = load i8, ptr @__libc_single_threaded, align 1
  %19 = icmp ne i8 %18, 0
  br i1 %19, label %20, label %30

20:                                               ; preds = %1
  %21 = load ptr, ptr %10, align 8
  %22 = load i32, ptr %11, align 4
  store ptr %21, ptr %6, align 8
  store i32 %22, ptr %7, align 4
  %23 = load ptr, ptr %6, align 8
  %24 = load i32, ptr %23, align 4
  store i32 %24, ptr %8, align 4
  %25 = load i32, ptr %7, align 4
  %26 = load ptr, ptr %6, align 8
  %27 = load i32, ptr %26, align 4
  %28 = add nsw i32 %27, %25
  store i32 %28, ptr %26, align 4
  %29 = load i32, ptr %8, align 4
  store i32 %29, ptr %9, align 4
  br label %38

30:                                               ; preds = %1
  %31 = load ptr, ptr %10, align 8
  %32 = load i32, ptr %11, align 4
  store ptr %31, ptr %2, align 8
  store i32 %32, ptr %3, align 4
  %33 = load ptr, ptr %2, align 8
  %34 = load i32, ptr %3, align 4
  store i32 %34, ptr %4, align 4
  %35 = load i32, ptr %4, align 4
  %36 = atomicrmw volatile add ptr %33, i32 %35 acq_rel, align 4
  store i32 %36, ptr %5, align 4
  %37 = load i32, ptr %5, align 4
  store i32 %37, ptr %9, align 4
  br label %38

38:                                               ; preds = %30, %20
  %39 = load i32, ptr %9, align 4
  br label %40

40:                                               ; preds = %38
  %41 = icmp eq i32 %39, 1
  br i1 %41, label %42, label %46

42:                                               ; preds = %40
  %43 = load ptr, ptr %13, align 8
  %44 = getelementptr inbounds ptr, ptr %43, i64 3
  %45 = load ptr, ptr %44, align 8
  call void %45(ptr noundef nonnull align 8 dereferenceable(16) %13) #3
  br label %46

46:                                               ; preds = %42, %40
  ret void

47:                                               ; No predecessors!
  %48 = landingpad { ptr, i32 }
          catch ptr null
  %49 = extractvalue { ptr, i32 } %48, 0
  call void @__clang_call_terminate(ptr %49) #13
  unreachable
}

; Function Attrs: mustprogress nounwind uwtable
define linkonce_odr void @_ZNSt16_Sp_counted_baseILN9__gnu_cxx12_Lock_policyE2EE24_M_release_last_use_coldEv(ptr noundef nonnull align 8 dereferenceable(16) %0) #0 comdat align 2 {
  %2 = alloca ptr, align 8
  store ptr %0, ptr %2, align 8
  %3 = load ptr, ptr %2, align 8
  call void @_ZNSt16_Sp_counted_baseILN9__gnu_cxx12_Lock_policyE2EE19_M_release_last_useEv(ptr noundef nonnull align 8 dereferenceable(16) %3) #3
  ret void
}

; Function Attrs: noreturn nounwind uwtable
define linkonce_odr hidden void @__clang_call_terminate(ptr noundef %0) #4 comdat {
  %2 = call ptr @__cxa_begin_catch(ptr %0) #3
  call void @_ZSt9terminatev() #13
  unreachable
}

; Function Attrs: mustprogress nounwind uwtable
define linkonce_odr void @_ZNSt16_Sp_counted_baseILN9__gnu_cxx12_Lock_policyE2EE10_M_releaseEv(ptr noundef nonnull align 8 dereferenceable(16) %0) #0 comdat align 2 personality ptr @__gxx_personality_v0 {
  %2 = alloca ptr, align 8
  %3 = alloca i32, align 4
  %4 = alloca i32, align 4
  %5 = alloca i32, align 4
  %6 = alloca ptr, align 8
  %7 = alloca i32, align 4
  %8 = alloca i32, align 4
  %9 = alloca i32, align 4
  %10 = alloca ptr, align 8
  %11 = alloca i32, align 4
  %12 = alloca ptr, align 8
  %13 = alloca i8, align 1
  %14 = alloca i8, align 1
  %15 = alloca i8, align 1
  %16 = alloca i32, align 4
  %17 = alloca i32, align 4
  %18 = alloca i64, align 8
  %19 = alloca ptr, align 8
  %20 = alloca i64, align 8
  store ptr %0, ptr %12, align 8
  %21 = load ptr, ptr %12, align 8
  store i8 1, ptr %13, align 1
  store i8 1, ptr %14, align 1
  store i8 1, ptr %15, align 1
  store i32 32, ptr %16, align 4
  store i32 32, ptr %17, align 4
  store i64 4294967297, ptr %18, align 8
  %22 = getelementptr inbounds nuw %"class.std::_Sp_counted_base", ptr %21, i32 0, i32 1
  store ptr %22, ptr %19, align 8
  %23 = load ptr, ptr %19, align 8
  %24 = load atomic i64, ptr %23 acquire, align 8
  store i64 %24, ptr %20, align 8
  %25 = load i64, ptr %20, align 8
  %26 = icmp eq i64 %25, 4294967297
  br i1 %26, label %27, label %36

27:                                               ; preds = %1
  %28 = getelementptr inbounds nuw %"class.std::_Sp_counted_base", ptr %21, i32 0, i32 1
  store i32 0, ptr %28, align 8
  %29 = getelementptr inbounds nuw %"class.std::_Sp_counted_base", ptr %21, i32 0, i32 2
  store i32 0, ptr %29, align 4
  %30 = load ptr, ptr %21, align 8
  %31 = getelementptr inbounds ptr, ptr %30, i64 2
  %32 = load ptr, ptr %31, align 8
  call void %32(ptr noundef nonnull align 8 dereferenceable(16) %21) #3
  %33 = load ptr, ptr %21, align 8
  %34 = getelementptr inbounds ptr, ptr %33, i64 3
  %35 = load ptr, ptr %34, align 8
  call void %35(ptr noundef nonnull align 8 dereferenceable(16) %21) #3
  br label %63

36:                                               ; preds = %1
  %37 = getelementptr inbounds nuw %"class.std::_Sp_counted_base", ptr %21, i32 0, i32 1
  store ptr %37, ptr %10, align 8
  store i32 -1, ptr %11, align 4
  %38 = load i8, ptr @__libc_single_threaded, align 1
  %39 = icmp ne i8 %38, 0
  br i1 %39, label %40, label %50

40:                                               ; preds = %36
  %41 = load ptr, ptr %10, align 8
  %42 = load i32, ptr %11, align 4
  store ptr %41, ptr %6, align 8
  store i32 %42, ptr %7, align 4
  %43 = load ptr, ptr %6, align 8
  %44 = load i32, ptr %43, align 4
  store i32 %44, ptr %8, align 4
  %45 = load i32, ptr %7, align 4
  %46 = load ptr, ptr %6, align 8
  %47 = load i32, ptr %46, align 4
  %48 = add nsw i32 %47, %45
  store i32 %48, ptr %46, align 4
  %49 = load i32, ptr %8, align 4
  store i32 %49, ptr %9, align 4
  br label %58

50:                                               ; preds = %36
  %51 = load ptr, ptr %10, align 8
  %52 = load i32, ptr %11, align 4
  store ptr %51, ptr %2, align 8
  store i32 %52, ptr %3, align 4
  %53 = load ptr, ptr %2, align 8
  %54 = load i32, ptr %3, align 4
  store i32 %54, ptr %4, align 4
  %55 = load i32, ptr %4, align 4
  %56 = atomicrmw volatile add ptr %53, i32 %55 acq_rel, align 4
  store i32 %56, ptr %5, align 4
  %57 = load i32, ptr %5, align 4
  store i32 %57, ptr %9, align 4
  br label %58

58:                                               ; preds = %50, %40
  %59 = load i32, ptr %9, align 4
  br label %60

60:                                               ; preds = %58
  %61 = icmp eq i32 %59, 1
  br i1 %61, label %62, label %63

62:                                               ; preds = %60
  call void @_ZNSt16_Sp_counted_baseILN9__gnu_cxx12_Lock_policyE2EE24_M_release_last_use_coldEv(ptr noundef nonnull align 8 dereferenceable(16) %21) #3
  br label %63

63:                                               ; preds = %62, %60, %27
  ret void

64:                                               ; No predecessors!
  %65 = landingpad { ptr, i32 }
          catch ptr null
  %66 = extractvalue { ptr, i32 } %65, 0
  call void @__clang_call_terminate(ptr %66) #13
  unreachable
}

; Function Attrs: mustprogress uwtable
define linkonce_odr void @_ZNSt16_Sp_counted_baseILN9__gnu_cxx12_Lock_policyE2EE15_M_add_ref_copyEv(ptr noundef nonnull align 8 dereferenceable(16) %0) #1 comdat align 2 {
  %2 = alloca ptr, align 8
  %3 = alloca i32, align 4
  %4 = alloca i32, align 4
  %5 = alloca i32, align 4
  %6 = alloca ptr, align 8
  %7 = alloca i32, align 4
  %8 = alloca ptr, align 8
  %9 = alloca i32, align 4
  %10 = alloca ptr, align 8
  store ptr %0, ptr %10, align 8
  %11 = load ptr, ptr %10, align 8
  %12 = getelementptr inbounds nuw %"class.std::_Sp_counted_base", ptr %11, i32 0, i32 1
  store ptr %12, ptr %8, align 8
  store i32 1, ptr %9, align 4
  %13 = load i8, ptr @__libc_single_threaded, align 1
  %14 = icmp ne i8 %13, 0
  br i1 %14, label %15, label %22

15:                                               ; preds = %1
  %16 = load ptr, ptr %8, align 8
  %17 = load i32, ptr %9, align 4
  store ptr %16, ptr %6, align 8
  store i32 %17, ptr %7, align 4
  %18 = load i32, ptr %7, align 4
  %19 = load ptr, ptr %6, align 8
  %20 = load i32, ptr %19, align 4
  %21 = add nsw i32 %20, %18
  store i32 %21, ptr %19, align 4
  br label %29

22:                                               ; preds = %1
  %23 = load ptr, ptr %8, align 8
  %24 = load i32, ptr %9, align 4
  store ptr %23, ptr %2, align 8
  store i32 %24, ptr %3, align 4
  %25 = load ptr, ptr %2, align 8
  %26 = load i32, ptr %3, align 4
  store i32 %26, ptr %4, align 4
  %27 = load i32, ptr %4, align 4
  %28 = atomicrmw volatile add ptr %25, i32 %27 acq_rel, align 4
  store i32 %28, ptr %5, align 4
  br label %29

29:                                               ; preds = %22, %15
  ret void
}

; Function Attrs: mustprogress nounwind uwtable
define linkonce_odr noundef nonnull align 8 dereferenceable(8) ptr @_ZNSt14__shared_countILN9__gnu_cxx12_Lock_policyE2EEaSERKS2_(ptr noundef nonnull align 8 dereferenceable(8) %0, ptr noundef nonnull align 8 dereferenceable(8) %1) #0 comdat align 2 personality ptr @__gxx_personality_v0 {
  %3 = alloca ptr, align 8
  %4 = alloca ptr, align 8
  %5 = alloca ptr, align 8
  store ptr %0, ptr %3, align 8
  store ptr %1, ptr %4, align 8
  %6 = load ptr, ptr %3, align 8
  %7 = load ptr, ptr %4, align 8
  %8 = getelementptr inbounds nuw %"class.std::__shared_count", ptr %7, i32 0, i32 0
  %9 = load ptr, ptr %8, align 8
  store ptr %9, ptr %5, align 8
  %10 = load ptr, ptr %5, align 8
  %11 = getelementptr inbounds nuw %"class.std::__shared_count", ptr %6, i32 0, i32 0
  %12 = load ptr, ptr %11, align 8
  %13 = icmp ne ptr %10, %12
  br i1 %13, label %14, label %30

14:                                               ; preds = %2
  %15 = load ptr, ptr %5, align 8
  %16 = icmp ne ptr %15, null
  br i1 %16, label %17, label %20

17:                                               ; preds = %14
  %18 = load ptr, ptr %5, align 8
  invoke void @_ZNSt16_Sp_counted_baseILN9__gnu_cxx12_Lock_policyE2EE15_M_add_ref_copyEv(ptr noundef nonnull align 8 dereferenceable(16) %18)
          to label %19 unwind label %31

19:                                               ; preds = %17
  br label %20

20:                                               ; preds = %19, %14
  %21 = getelementptr inbounds nuw %"class.std::__shared_count", ptr %6, i32 0, i32 0
  %22 = load ptr, ptr %21, align 8
  %23 = icmp ne ptr %22, null
  br i1 %23, label %24, label %27

24:                                               ; preds = %20
  %25 = getelementptr inbounds nuw %"class.std::__shared_count", ptr %6, i32 0, i32 0
  %26 = load ptr, ptr %25, align 8
  call void @_ZNSt16_Sp_counted_baseILN9__gnu_cxx12_Lock_policyE2EE10_M_releaseEv(ptr noundef nonnull align 8 dereferenceable(16) %26) #3
  br label %27

27:                                               ; preds = %24, %20
  %28 = load ptr, ptr %5, align 8
  %29 = getelementptr inbounds nuw %"class.std::__shared_count", ptr %6, i32 0, i32 0
  store ptr %28, ptr %29, align 8
  br label %30

30:                                               ; preds = %27, %2
  ret ptr %6

31:                                               ; preds = %17
  %32 = landingpad { ptr, i32 }
          catch ptr null
  %33 = extractvalue { ptr, i32 } %32, 0
  call void @__clang_call_terminate(ptr %33) #13
  unreachable
}

; Function Attrs: mustprogress nounwind uwtable
define linkonce_odr noundef nonnull align 8 dereferenceable(16) ptr @_ZNSt12__shared_ptrIN32pxrInternal_v0_24__pxrReserved__24HdTypedSampledDataSourceINS0_7GfVec2dEEELN9__gnu_cxx12_Lock_policyE2EEaSERKS6_(ptr noundef nonnull align 8 dereferenceable(16) %0, ptr noundef nonnull align 8 dereferenceable(16) %1) #0 comdat align 2 {
  %3 = alloca ptr, align 8
  %4 = alloca ptr, align 8
  store ptr %0, ptr %3, align 8
  store ptr %1, ptr %4, align 8
  %5 = load ptr, ptr %3, align 8
  %6 = load ptr, ptr %4, align 8
  %7 = getelementptr inbounds nuw %"class.std::__shared_ptr.10", ptr %6, i32 0, i32 0
  %8 = load ptr, ptr %7, align 8
  %9 = getelementptr inbounds nuw %"class.std::__shared_ptr.10", ptr %5, i32 0, i32 0
  store ptr %8, ptr %9, align 8
  %10 = getelementptr inbounds nuw %"class.std::__shared_ptr.10", ptr %5, i32 0, i32 1
  %11 = load ptr, ptr %4, align 8
  %12 = getelementptr inbounds nuw %"class.std::__shared_ptr.10", ptr %11, i32 0, i32 1
  %13 = call noundef nonnull align 8 dereferenceable(8) ptr @_ZNSt14__shared_countILN9__gnu_cxx12_Lock_policyE2EEaSERKS2_(ptr noundef nonnull align 8 dereferenceable(8) %10, ptr noundef nonnull align 8 dereferenceable(8) %12) #3
  ret ptr %5
}

; Function Attrs: mustprogress nounwind uwtable
define linkonce_odr noundef nonnull align 8 dereferenceable(16) ptr @_ZNSt10shared_ptrIN32pxrInternal_v0_24__pxrReserved__24HdTypedSampledDataSourceINS0_7GfVec2dEEEEaSERKS4_(ptr noundef nonnull align 8 dereferenceable(16) %0, ptr noundef nonnull align 8 dereferenceable(16) %1) #0 comdat align 2 {
  %3 = alloca ptr, align 8
  %4 = alloca ptr, align 8
  store ptr %0, ptr %3, align 8
  store ptr %1, ptr %4, align 8
  %5 = load ptr, ptr %3, align 8
  %6 = load ptr, ptr %4, align 8
  %7 = call noundef nonnull align 8 dereferenceable(16) ptr @_ZNSt12__shared_ptrIN32pxrInternal_v0_24__pxrReserved__24HdTypedSampledDataSourceINS0_7GfVec2dEEELN9__gnu_cxx12_Lock_policyE2EEaSERKS6_(ptr noundef nonnull align 8 dereferenceable(16) %5, ptr noundef nonnull align 8 dereferenceable(16) %6) #3
  ret ptr %5
}

; Function Attrs: mustprogress nounwind uwtable
define noundef nonnull align 8 dereferenceable(208) ptr @_ZN32pxrInternal_v0_24__pxrReserved__18HdNurbsPatchSchema7Builder9SetURangeERKSt10shared_ptrINS_24HdTypedSampledDataSourceINS_7GfVec2dEEEE(ptr noundef nonnull align 8 dereferenceable(208) %0, ptr noundef nonnull align 8 dereferenceable(16) %1) #0 align 2 {
  %3 = alloca ptr, align 8
  %4 = alloca ptr, align 8
  store ptr %0, ptr %3, align 8
  store ptr %1, ptr %4, align 8
  %5 = load ptr, ptr %3, align 8
  %6 = load ptr, ptr %4, align 8
  %7 = getelementptr inbounds nuw %"class.pxrInternal_v0_24__pxrReserved__::HdNurbsPatchSchema::Builder", ptr %5, i32 0, i32 8
  %8 = call noundef nonnull align 8 dereferenceable(16) ptr @_ZNSt10shared_ptrIN32pxrInternal_v0_24__pxrReserved__24HdTypedSampledDataSourceINS0_7GfVec2dEEEEaSERKS4_(ptr noundef nonnull align 8 dereferenceable(16) %7, ptr noundef nonnull align 8 dereferenceable(16) %6) #3
  ret ptr %5
}